; Function Attrs: mustprogress nofree norecurse nosync nounwind willreturn memory(argmem: readwrite) uwtable
define void @_ZNK32pxrInternal_v0_24__pxrReserved__11GfDualQuatf12GetConjugateEv(ptr dead_on_unwind noalias writable writeonly sret(%"class.pxrInternal_v0_24__pxrReserved__::GfDualQuatf") align 4 captures(none) initializes((0, 32)) %0, ptr noundef nonnull readonly align 4 captures(none) dereferenceable(32) %1) local_unnamed_addr #3 align 2 {
  %3 = getelementptr inbounds nuw i8, ptr %1, i64 12
  %4 = load float, ptr %3, align 4
  %5 = load float, ptr %1, align 4
  %6 = fneg float %5
  %7 = getelementptr inbounds nuw i8, ptr %1, i64 4
  %8 = load float, ptr %7, align 4
  %9 = fneg float %8
  %10 = getelementptr inbounds nuw i8, ptr %1, i64 8
  %11 = load float, ptr %10, align 4
  %12 = fneg float %11
  %.sroa.0.0.vec.insert.i.i = insertelement <2 x float> poison, float %6, i64 0
  %.sroa.0.4.vec.insert.i.i = insertelement <2 x float> %.sroa.0.0.vec.insert.i.i, float %9, i64 1
  %.sroa.23.8.vec.insert.i = insertelement <2 x float> poison, float %12, i64 0
  %.sroa.23.12.vec.insert.i = insertelement <2 x float> %.sroa.23.8.vec.insert.i, float %4, i64 1
  %13 = getelementptr inbounds nuw i8, ptr %1, i64 16
  %14 = getelementptr inbounds nuw i8, ptr %1, i64 28
  %15 = load float, ptr %14, align 4
  %16 = load float, ptr %13, align 4
  %17 = fneg float %16
  %18 = getelementptr inbounds nuw i8, ptr %1, i64 20
  %19 = load float, ptr %18, align 4
  %20 = fneg float %19
  %21 = getelementptr inbounds nuw i8, ptr %1, i64 24
  %22 = load float, ptr %21, align 4
  %23 = fneg float %22
  %.sroa.0.0.vec.insert.i.i1 = insertelement <2 x float> poison, float %17, i64 0
  %.sroa.0.4.vec.insert.i.i2 = insertelement <2 x float> %.sroa.0.0.vec.insert.i.i1, float %20, i64 1
  %.sroa.23.8.vec.insert.i3 = insertelement <2 x float> poison, float %23, i64 0
  %.sroa.23.12.vec.insert.i4 = insertelement <2 x float> %.sroa.23.8.vec.insert.i3, float %15, i64 1
  store <2 x float> %.sroa.0.4.vec.insert.i.i, ptr %0, align 4
  %.sroa.28.0..sroa_idx = getelementptr inbounds nuw i8, ptr %0, i64 8
  store <2 x float> %.sroa.23.12.vec.insert.i, ptr %.sroa.28.0..sroa_idx, align 4
  %24 = getelementptr inbounds nuw i8, ptr %0, i64 16
  store <2 x float> %.sroa.0.4.vec.insert.i.i2, ptr %24, align 4
  %.sroa.2.0..sroa_idx = getelementptr inbounds nuw i8, ptr %0, i64 24
  store <2 x float> %.sroa.23.12.vec.insert.i4, ptr %.sroa.2.0..sroa_idx, align 4
  ret void
}